target datalayout = "e-m:e-p270:32:32-p271:32:32-p272:64:64-i64:64-i128:128-f80:128-n8:16:32:64-S128"
target triple = "x86_64-pc-linux-gnu"

%struct.cimd_parameter_t = type { ptr, ptr, ptr }
%struct._value_string = type { i32, ptr }

@hf_cimd_pcode_indicator = internal global i32 0, align 4
@hf_cimd_dcs_coding_group_indicatorC0 = internal global i32 0, align 4
@hf_cimd_dcs_coding_group_indicatorF0 = internal global i32 0, align 4
@hf_cimd_dcs_compressed_indicator = internal global i32 0, align 4
@hf_cimd_dcs_message_class_meaning_indicator = internal global i32 0, align 4
@hf_cimd_dcs_message_class_indicator = internal global i32 0, align 4
@hf_cimd_dcs_character_set_indicator0C = internal global i32 0, align 4
@hf_cimd_dcs_character_set_indicator04 = internal global i32 0, align 4
@hf_cimd_dcs_indication_sense = internal global i32 0, align 4
@hf_cimd_dcs_indication_type = internal global i32 0, align 4
@vals_hdr_PC = internal global [38 x %struct.cimd_parameter_t] zeroinitializer, align 16

; Function Attrs: null_pointer_is_valid sspstrong uwtable
define internal void @dissect_cimd_dcs(ptr noundef %0, ptr noundef %1, i32 noundef %2, i32 noundef %3, i32 noundef %4) #0 {
  %6 = alloca ptr, align 8
  %7 = alloca ptr, align 8
  %8 = alloca i32, align 4
  %9 = alloca i32, align 4
  %10 = alloca i32, align 4
  %11 = alloca ptr, align 8
  %12 = alloca i32, align 4
  %13 = alloca i32, align 4
  %14 = alloca i32, align 4
  store ptr %0, ptr %6, align 8
  store ptr %1, ptr %7, align 8
  store i32 %2, ptr %8, align 4
  store i32 %3, ptr %9, align 4
  store i32 %4, ptr %10, align 4
  call void @llvm.lifetime.start.p0(i64 8, ptr %11) #4
  call void @llvm.lifetime.start.p0(i64 4, ptr %12) #4
  call void @llvm.lifetime.start.p0(i64 4, ptr %13) #4
  call void @llvm.lifetime.start.p0(i64 4, ptr %14) #4
  %15 = load ptr, ptr %7, align 8
  %16 = load ptr, ptr %6, align 8
  %17 = load i32, ptr %9, align 4
  %18 = add i32 %17, 1
  %19 = load i32, ptr %10, align 4
  %20 = load i32, ptr %9, align 4
  %21 = add i32 %20, 1
  %22 = sub i32 %19, %21
  %23 = load i32, ptr %8, align 4
  %24 = sext i32 %23 to i64
  %25 = getelementptr [38 x %struct.cimd_parameter_t], ptr @vals_hdr_PC, i64 0, i64 %24
  %26 = getelementptr inbounds nuw %struct.cimd_parameter_t, ptr %25, i32 0, i32 1
  %27 = load ptr, ptr %26, align 8
  %28 = load i32, ptr %27, align 4
  %29 = load i32, ptr %8, align 4
  %30 = sext i32 %29 to i64
  %31 = getelementptr [38 x %struct._value_string], ptr @cimd_vals_PC, i64 0, i64 %30
  %32 = getelementptr inbounds nuw %struct._value_string, ptr %31, i32 0, i32 1
  %33 = load ptr, ptr %32, align 8
  %34 = call ptr @proto_tree_add_subtree(ptr noundef %15, ptr noundef %16, i32 noundef %18, i32 noundef %22, i32 noundef %28, ptr noundef null, ptr noundef %33)
  store ptr %34, ptr %11, align 8
  %35 = load ptr, ptr %11, align 8
  %36 = load i32, ptr @hf_cimd_pcode_indicator, align 4
  %37 = load ptr, ptr %6, align 8
  %38 = load i32, ptr %9, align 4
  %39 = add i32 %38, 1
  %40 = call ptr @proto_tree_add_item(ptr noundef %35, i32 noundef %36, ptr noundef %37, i32 noundef %39, i32 noundef 3, i32 noundef 0)
  %41 = load i32, ptr %9, align 4
  %42 = add i32 %41, 1
  %43 = add i32 %42, 3
  %44 = add i32 %43, 1
  store i32 %44, ptr %12, align 4
  %45 = call ptr @wmem_packet_scope()
  %46 = load ptr, ptr %6, align 8
  %47 = load i32, ptr %12, align 4
  %48 = load i32, ptr %10, align 4
  %49 = load i32, ptr %12, align 4
  %50 = sub i32 %48, %49
  %51 = call ptr @tvb_get_string_enc(ptr noundef %45, ptr noundef %46, i32 noundef %47, i32 noundef %50, i32 noundef 0)
  %52 = call i64 @strtoul(ptr noundef %51, ptr noundef null, i32 noundef 10) #4
  %53 = trunc i64 %52 to i32
  store i32 %53, ptr %13, align 4
  %54 = load ptr, ptr %11, align 8
  %55 = load i32, ptr %8, align 4
  %56 = sext i32 %55 to i64
  %57 = getelementptr [38 x %struct.cimd_parameter_t], ptr @vals_hdr_PC, i64 0, i64 %56
  %58 = getelementptr inbounds nuw %struct.cimd_parameter_t, ptr %57, i32 0, i32 2
  %59 = load ptr, ptr %58, align 8
  %60 = load i32, ptr %59, align 4
  %61 = load ptr, ptr %6, align 8
  %62 = load i32, ptr %12, align 4
  %63 = load i32, ptr %10, align 4
  %64 = load i32, ptr %12, align 4
  %65 = sub i32 %63, %64
  %66 = load i32, ptr %13, align 4
  %67 = call ptr @proto_tree_add_uint(ptr noundef %54, i32 noundef %60, ptr noundef %61, i32 noundef %62, i32 noundef %65, i32 noundef %66)
  %68 = load i32, ptr %13, align 4
  %69 = and i32 %68, 240
  %70 = lshr i32 %69, 4
  store i32 %70, ptr %14, align 4
  %71 = load i32, ptr %14, align 4
  %72 = icmp ule i32 %71, 7
  br i1 %72, label %73, label %80

73:                                               ; preds = %5
  %74 = load ptr, ptr %11, align 8
  %75 = load i32, ptr @hf_cimd_dcs_coding_group_indicatorC0, align 4
  %76 = load ptr, ptr %6, align 8
  %77 = load i32, ptr %12, align 4
  %78 = load i32, ptr %13, align 4
  %79 = call ptr @proto_tree_add_uint(ptr noundef %74, i32 noundef %75, ptr noundef %76, i32 noundef %77, i32 noundef 1, i32 noundef %78)
  br label %87

80:                                               ; preds = %5
  %81 = load ptr, ptr %11, align 8
  %82 = load i32, ptr @hf_cimd_dcs_coding_group_indicatorF0, align 4
  %83 = load ptr, ptr %6, align 8
  %84 = load i32, ptr %12, align 4
  %85 = load i32, ptr %13, align 4
  %86 = call ptr @proto_tree_add_uint(ptr noundef %81, i32 noundef %82, ptr noundef %83, i32 noundef %84, i32 noundef 1, i32 noundef %85)
  br label %87

87:                                               ; preds = %80, %73
  %88 = load i32, ptr %14, align 4
  %89 = icmp ule i32 %88, 7
  br i1 %89, label %90, label %120

90:                                               ; preds = %87
  %91 = load ptr, ptr %11, align 8
  %92 = load i32, ptr @hf_cimd_dcs_compressed_indicator, align 4
  %93 = load ptr, ptr %6, align 8
  %94 = load i32, ptr %12, align 4
  %95 = load i32, ptr %13, align 4
  %96 = call ptr @proto_tree_add_uint(ptr noundef %91, i32 noundef %92, ptr noundef %93, i32 noundef %94, i32 noundef 1, i32 noundef %95)
  %97 = load ptr, ptr %11, align 8
  %98 = load i32, ptr @hf_cimd_dcs_message_class_meaning_indicator, align 4
  %99 = load ptr, ptr %6, align 8
  %100 = load i32, ptr %12, align 4
  %101 = load i32, ptr %13, align 4
  %102 = call ptr @proto_tree_add_uint(ptr noundef %97, i32 noundef %98, ptr noundef %99, i32 noundef %100, i32 noundef 1, i32 noundef %101)
  %103 = load ptr, ptr %11, align 8
  %104 = load i32, ptr @hf_cimd_dcs_character_set_indicator0C, align 4
  %105 = load ptr, ptr %6, align 8
  %106 = load i32, ptr %12, align 4
  %107 = load i32, ptr %13, align 4
  %108 = call ptr @proto_tree_add_uint(ptr noundef %103, i32 noundef %104, ptr noundef %105, i32 noundef %106, i32 noundef 1, i32 noundef %107)
  %109 = load i32, ptr %13, align 4
  %110 = and i32 %109, 16
  %111 = icmp ne i32 %110, 0
  br i1 %111, label %112, label %119

112:                                              ; preds = %90
  %113 = load ptr, ptr %11, align 8
  %114 = load i32, ptr @hf_cimd_dcs_message_class_indicator, align 4
  %115 = load ptr, ptr %6, align 8
  %116 = load i32, ptr %12, align 4
  %117 = load i32, ptr %13, align 4
  %118 = call ptr @proto_tree_add_uint(ptr noundef %113, i32 noundef %114, ptr noundef %115, i32 noundef %116, i32 noundef 1, i32 noundef %117)
  br label %119

119:                                              ; preds = %112, %90
  br label %157

120:                                              ; preds = %87
  %121 = load i32, ptr %14, align 4
  %122 = icmp uge i32 %121, 12
  br i1 %122, label %123, label %139

123:                                              ; preds = %120
  %124 = load i32, ptr %14, align 4
  %125 = icmp ule i32 %124, 14
  br i1 %125, label %126, label %139

126:                                              ; preds = %123
  %127 = load ptr, ptr %11, align 8
  %128 = load i32, ptr @hf_cimd_dcs_indication_sense, align 4
  %129 = load ptr, ptr %6, align 8
  %130 = load i32, ptr %12, align 4
  %131 = load i32, ptr %13, align 4
  %132 = call ptr @proto_tree_add_uint(ptr noundef %127, i32 noundef %128, ptr noundef %129, i32 noundef %130, i32 noundef 1, i32 noundef %131)
  %133 = load ptr, ptr %11, align 8
  %134 = load i32, ptr @hf_cimd_dcs_indication_type, align 4
  %135 = load ptr, ptr %6, align 8
  %136 = load i32, ptr %12, align 4
  %137 = load i32, ptr %13, align 4
  %138 = call ptr @proto_tree_add_uint(ptr noundef %133, i32 noundef %134, ptr noundef %135, i32 noundef %136, i32 noundef 1, i32 noundef %137)
  br label %156

139:                                              ; preds = %123, %120
  %140 = load i32, ptr %14, align 4
  %141 = icmp eq i32 %140, 15
  br i1 %141, label %142, label %155

142:                                              ; preds = %139
  %143 = load ptr, ptr %11, align 8
  %144 = load i32, ptr @hf_cimd_dcs_character_set_indicator04, align 4
  %145 = load ptr, ptr %6, align 8
  %146 = load i32, ptr %12, align 4
  %147 = load i32, ptr %13, align 4
  %148 = call ptr @proto_tree_add_uint(ptr noundef %143, i32 noundef %144, ptr noundef %145, i32 noundef %146, i32 noundef 1, i32 noundef %147)
  %149 = load ptr, ptr %11, align 8
  %150 = load i32, ptr @hf_cimd_dcs_message_class_indicator, align 4
  %151 = load ptr, ptr %6, align 8
  %152 = load i32, ptr %12, align 4
  %153 = load i32, ptr %13, align 4
  %154 = call ptr @proto_tree_add_uint(ptr noundef %149, i32 noundef %150, ptr noundef %151, i32 noundef %152, i32 noundef 1, i32 noundef %153)
  br label %155

155:                                              ; preds = %142, %139
  br label %156

156:                                              ; preds = %155, %126
  br label %157

157:                                              ; preds = %156, %119
  call void @llvm.lifetime.end.p0(i64 4, ptr %14) #4
  call void @llvm.lifetime.end.p0(i64 4, ptr %13) #4
  call void @llvm.lifetime.end.p0(i64 4, ptr %12) #4
  call void @llvm.lifetime.end.p0(i64 8, ptr %11) #4
  ret void
}