; Function Attrs: null_pointer_is_valid sspstrong uwtable
define internal void @dissect_cimd_dcs(ptr noundef %0, ptr noundef %1, i32 noundef %2, i32 noundef %3, i32 noundef %4) #0 {
  %6 = add i32 %3, 1
  %7 = sub i32 %4, %6
  %8 = sext i32 %2 to i64
  %9 = getelementptr [38 x %struct.cimd_parameter_t], ptr @vals_hdr_PC, i64 0, i64 %8
  %10 = getelementptr inbounds nuw i8, ptr %9, i64 8
  %11 = load ptr, ptr %10, align 8
  %12 = load i32, ptr %11, align 4
  %13 = getelementptr [38 x %struct._value_string], ptr @cimd_vals_PC, i64 0, i64 %8, i32 1
  %14 = load ptr, ptr %13, align 8
  %15 = tail call ptr @proto_tree_add_subtree(ptr noundef %1, ptr noundef %0, i32 noundef %6, i32 noundef %7, i32 noundef %12, ptr noundef null, ptr noundef %14)
  %16 = load i32, ptr @hf_cimd_pcode_indicator, align 4
  %17 = tail call ptr @proto_tree_add_item(ptr noundef %15, i32 noundef %16, ptr noundef %0, i32 noundef %6, i32 noundef 3, i32 noundef 0)
  %18 = add i32 %3, 5
  %19 = tail call ptr @wmem_packet_scope()
  %20 = sub i32 %4, %18
  %21 = tail call ptr @tvb_get_string_enc(ptr noundef %19, ptr noundef %0, i32 noundef %18, i32 noundef %20, i32 noundef 0)
  %22 = tail call i64 @strtoul(ptr noundef captures(none) %21, ptr noundef null, i32 noundef 10) #4
  %23 = trunc i64 %22 to i32
  %24 = getelementptr inbounds nuw i8, ptr %9, i64 16
  %25 = load ptr, ptr %24, align 8
  %26 = load i32, ptr %25, align 4
  %27 = tail call ptr @proto_tree_add_uint(ptr noundef %15, i32 noundef %26, ptr noundef %0, i32 noundef %18, i32 noundef %20, i32 noundef %23)
  %28 = lshr i32 %23, 4
  %29 = and i32 %28, 15
  %30 = icmp samesign ult i32 %29, 8
  br i1 %30, label %31, label %41

31:                                               ; preds = %5
  %32 = load i32, ptr @hf_cimd_dcs_coding_group_indicatorC0, align 4
  %33 = tail call ptr @proto_tree_add_uint(ptr noundef %15, i32 noundef %32, ptr noundef %0, i32 noundef %18, i32 noundef 1, i32 noundef %23)
  %34 = load i32, ptr @hf_cimd_dcs_compressed_indicator, align 4
  %35 = tail call ptr @proto_tree_add_uint(ptr noundef %15, i32 noundef %34, ptr noundef %0, i32 noundef %18, i32 noundef 1, i32 noundef %23)
  %36 = load i32, ptr @hf_cimd_dcs_message_class_meaning_indicator, align 4
  %37 = tail call ptr @proto_tree_add_uint(ptr noundef %15, i32 noundef %36, ptr noundef %0, i32 noundef %18, i32 noundef 1, i32 noundef %23)
  %38 = load i32, ptr @hf_cimd_dcs_character_set_indicator0C, align 4
  %39 = tail call ptr @proto_tree_add_uint(ptr noundef %15, i32 noundef %38, ptr noundef %0, i32 noundef %18, i32 noundef 1, i32 noundef %23)
  %40 = and i32 %23, 16
  %.not = icmp eq i32 %40, 0
  br i1 %.not, label %52, label %.sink.split

41:                                               ; preds = %5
  %42 = load i32, ptr @hf_cimd_dcs_coding_group_indicatorF0, align 4
  %43 = tail call ptr @proto_tree_add_uint(ptr noundef %15, i32 noundef %42, ptr noundef %0, i32 noundef %18, i32 noundef 1, i32 noundef %23)
  %44 = icmp samesign ugt i32 %29, 11
  %45 = icmp ne i32 %29, 15
  %or.cond = and i1 %44, %45
  br i1 %or.cond, label %.sink.split.sink.split, label %46

46:                                               ; preds = %41
  %47 = icmp eq i32 %29, 15
  br i1 %47, label %.sink.split.sink.split, label %52

.sink.split.sink.split:                           ; preds = %46, %41
  %hf_cimd_dcs_character_set_indicator04.sink = phi ptr [ @hf_cimd_dcs_indication_sense, %41 ], [ @hf_cimd_dcs_character_set_indicator04, %46 ]
  %hf_cimd_dcs_indication_type.sink.ph = phi ptr [ @hf_cimd_dcs_indication_type, %41 ], [ @hf_cimd_dcs_message_class_indicator, %46 ]
  %48 = load i32, ptr %hf_cimd_dcs_character_set_indicator04.sink, align 4
  %49 = tail call ptr @proto_tree_add_uint(ptr noundef %15, i32 noundef %48, ptr noundef %0, i32 noundef %18, i32 noundef 1, i32 noundef %23)
  br label %.sink.split

.sink.split:                                      ; preds = %.sink.split.sink.split, %31
  %hf_cimd_dcs_indication_type.sink = phi ptr [ @hf_cimd_dcs_message_class_indicator, %31 ], [ %hf_cimd_dcs_indication_type.sink.ph, %.sink.split.sink.split ]
  %50 = load i32, ptr %hf_cimd_dcs_indication_type.sink, align 4
  %51 = tail call ptr @proto_tree_add_uint(ptr noundef %15, i32 noundef %50, ptr noundef %0, i32 noundef %18, i32 noundef 1, i32 noundef %23)
  br label %52

52:                                               ; preds = %.sink.split, %46, %31
  ret void
}